; Function Attrs: nounwind uwtable
define internal i32 @got_transport_params_cb(ptr noundef %0, i64 noundef %1, ptr noundef %2) #0 {
  %4 = icmp eq ptr %2, null
  br i1 %4, label %.thread, label %5

5:                                                ; preds = %3
  %6 = load i32, ptr %2, align 8, !tbaa !3
  %7 = icmp eq i32 %6, 0
  br i1 %7, label %.thread15, label %8

8:                                                ; preds = %5
  %9 = and i32 %6, 128
  %.not = icmp eq i32 %9, 0
  br i1 %.not, label %.thread, label %10

10:                                               ; preds = %8
  %11 = tail call ptr @ossl_quic_obj_get0_handshake_layer(ptr noundef nonnull %2) #5
  %12 = icmp eq ptr %11, null
  br i1 %12, label %.thread, label %.thread15

.thread15:                                        ; preds = %5, %10
  %13 = phi ptr [ %11, %10 ], [ %2, %5 ]
  %14 = getelementptr inbounds nuw i8, ptr %13, i64 320
  %15 = load ptr, ptr %14, align 8, !tbaa !103
  %16 = getelementptr inbounds nuw i8, ptr %13, i64 336
  %17 = load ptr, ptr %16, align 8, !tbaa !27
  %18 = tail call i32 %15(ptr noundef nonnull %2, ptr noundef %0, i64 noundef %1, ptr noundef %17) #5
  br label %.thread

.thread:                                          ; preds = %8, %3, %10, %.thread15
  %.0 = phi i32 [ %18, %.thread15 ], [ 0, %10 ], [ 0, %3 ], [ 0, %8 ]
  ret i32 %.0
}